; Function Attrs: nounwind uwtable
define ptr @l_Array_forIn_x27Unsafe_loop___at_Lean_Elab_WF_GuessLex_complexMeasures___spec__9___boxed(ptr noundef %0, ptr noundef %1, ptr noundef %2, ptr noundef %3, ptr noundef %4, ptr noundef %5, ptr noundef %6, ptr noundef %7, ptr noundef %8, ptr noundef %9, ptr noundef %10, ptr noundef %11, ptr noundef %12, ptr noundef %13, ptr noundef %14, ptr noundef %15) local_unnamed_addr #1 {
  %17 = getelementptr i8, ptr %1, i64 8
  %.val53 = load i64, ptr %17, align 8, !tbaa !12
  %18 = ptrtoint ptr %1 to i64
  %19 = and i64 %18, 1
  %.not = icmp eq i64 %19, 0
  br i1 %.not, label %20, label %lean_dec.exit35

20:                                               ; preds = %16
  %21 = load i32, ptr %1, align 4, !tbaa !8
  %22 = icmp sgt i32 %21, 1
  br i1 %22, label %23, label %25, !prof !11

23:                                               ; preds = %20
  %24 = add nsw i32 %21, -1
  store i32 %24, ptr %1, align 4, !tbaa !8
  br label %lean_dec.exit35

25:                                               ; preds = %20
  %.not.i = icmp eq i32 %21, 0
  br i1 %.not.i, label %lean_dec.exit35, label %26

26:                                               ; preds = %25
  tail call void @lean_dec_ref_cold(ptr noundef nonnull %1) #8
  br label %lean_dec.exit35

lean_dec.exit35:                                  ; preds = %26, %25, %23, %16
  %27 = getelementptr i8, ptr %8, i64 8
  %.val52 = load i64, ptr %27, align 8, !tbaa !12
  %28 = ptrtoint ptr %8 to i64
  %29 = and i64 %28, 1
  %.not54 = icmp eq i64 %29, 0
  br i1 %.not54, label %30, label %lean_dec.exit34

30:                                               ; preds = %lean_dec.exit35
  %31 = load i32, ptr %8, align 4, !tbaa !8
  %32 = icmp sgt i32 %31, 1
  br i1 %32, label %33, label %35, !prof !11

33:                                               ; preds = %30
  %34 = add nsw i32 %31, -1
  store i32 %34, ptr %8, align 4, !tbaa !8
  br label %lean_dec.exit34

35:                                               ; preds = %30
  %.not.i36 = icmp eq i32 %31, 0
  br i1 %.not.i36, label %lean_dec.exit34, label %36

36:                                               ; preds = %35
  tail call void @lean_dec_ref_cold(ptr noundef nonnull %8) #8
  br label %lean_dec.exit34

lean_dec.exit34:                                  ; preds = %36, %35, %33, %lean_dec.exit35
  %37 = getelementptr i8, ptr %9, i64 8
  %.val = load i64, ptr %37, align 8, !tbaa !12
  %38 = ptrtoint ptr %9 to i64
  %39 = and i64 %38, 1
  %.not55 = icmp eq i64 %39, 0
  br i1 %.not55, label %40, label %lean_dec.exit33

40:                                               ; preds = %lean_dec.exit34
  %41 = load i32, ptr %9, align 4, !tbaa !8
  %42 = icmp sgt i32 %41, 1
  br i1 %42, label %43, label %45, !prof !11

43:                                               ; preds = %40
  %44 = add nsw i32 %41, -1
  store i32 %44, ptr %9, align 4, !tbaa !8
  br label %lean_dec.exit33

45:                                               ; preds = %40
  %.not.i38 = icmp eq i32 %41, 0
  br i1 %.not.i38, label %lean_dec.exit33, label %46

46:                                               ; preds = %45
  tail call void @lean_dec_ref_cold(ptr noundef nonnull %9) #8
  br label %lean_dec.exit33

lean_dec.exit33:                                  ; preds = %46, %45, %43, %lean_dec.exit34
  %47 = tail call ptr @l_Array_forIn_x27Unsafe_loop___at_Lean_Elab_WF_GuessLex_complexMeasures___spec__9(ptr noundef %0, i64 noundef %.val53, ptr noundef %2, ptr noundef %3, ptr poison, ptr poison, ptr noundef %6, ptr noundef %7, i64 noundef %.val52, i64 noundef %.val, ptr noundef %10, ptr noundef %11, ptr noundef %12, ptr noundef %13, ptr noundef %14, ptr noundef %15)
  %48 = ptrtoint ptr %7 to i64
  %49 = and i64 %48, 1
  %.not56 = icmp eq i64 %49, 0
  br i1 %.not56, label %50, label %lean_dec.exit32

50:                                               ; preds = %lean_dec.exit33
  %51 = load i32, ptr %7, align 4, !tbaa !8
  %52 = icmp sgt i32 %51, 1
  br i1 %52, label %53, label %55, !prof !11

53:                                               ; preds = %50
  %54 = add nsw i32 %51, -1
  store i32 %54, ptr %7, align 4, !tbaa !8
  br label %lean_dec.exit32

55:                                               ; preds = %50
  %.not.i40 = icmp eq i32 %51, 0
  br i1 %.not.i40, label %lean_dec.exit32, label %56

56:                                               ; preds = %55
  tail call void @lean_dec_ref_cold(ptr noundef nonnull %7) #8
  br label %lean_dec.exit32

lean_dec.exit32:                                  ; preds = %56, %55, %53, %lean_dec.exit33
  %57 = ptrtoint ptr %5 to i64
  %58 = and i64 %57, 1
  %.not57 = icmp eq i64 %58, 0
  br i1 %.not57, label %59, label %lean_dec.exit31

59:                                               ; preds = %lean_dec.exit32
  %60 = load i32, ptr %5, align 4, !tbaa !8
  %61 = icmp sgt i32 %60, 1
  br i1 %61, label %62, label %64, !prof !11

62:                                               ; preds = %59
  %63 = add nsw i32 %60, -1
  store i32 %63, ptr %5, align 4, !tbaa !8
  br label %lean_dec.exit31

64:                                               ; preds = %59
  %.not.i42 = icmp eq i32 %60, 0
  br i1 %.not.i42, label %lean_dec.exit31, label %65

65:                                               ; preds = %64
  tail call void @lean_dec_ref_cold(ptr noundef nonnull %5) #8
  br label %lean_dec.exit31

lean_dec.exit31:                                  ; preds = %65, %64, %62, %lean_dec.exit32
  %66 = ptrtoint ptr %4 to i64
  %67 = and i64 %66, 1
  %.not58 = icmp eq i64 %67, 0
  br i1 %.not58, label %68, label %lean_dec.exit30

68:                                               ; preds = %lean_dec.exit31
  %69 = load i32, ptr %4, align 4, !tbaa !8
  %70 = icmp sgt i32 %69, 1
  br i1 %70, label %71, label %73, !prof !11

71:                                               ; preds = %68
  %72 = add nsw i32 %69, -1
  store i32 %72, ptr %4, align 4, !tbaa !8
  br label %lean_dec.exit30

73:                                               ; preds = %68
  %.not.i44 = icmp eq i32 %69, 0
  br i1 %.not.i44, label %lean_dec.exit30, label %74

74:                                               ; preds = %73
  tail call void @lean_dec_ref_cold(ptr noundef nonnull %4) #8
  br label %lean_dec.exit30

lean_dec.exit30:                                  ; preds = %74, %73, %71, %lean_dec.exit31
  %75 = ptrtoint ptr %3 to i64
  %76 = and i64 %75, 1
  %.not59 = icmp eq i64 %76, 0
  br i1 %.not59, label %77, label %lean_dec.exit29

77:                                               ; preds = %lean_dec.exit30
  %78 = load i32, ptr %3, align 4, !tbaa !8
  %79 = icmp sgt i32 %78, 1
  br i1 %79, label %80, label %82, !prof !11

80:                                               ; preds = %77
  %81 = add nsw i32 %78, -1
  store i32 %81, ptr %3, align 4, !tbaa !8
  br label %lean_dec.exit29

82:                                               ; preds = %77
  %.not.i46 = icmp eq i32 %78, 0
  br i1 %.not.i46, label %lean_dec.exit29, label %83

83:                                               ; preds = %82
  tail call void @lean_dec_ref_cold(ptr noundef nonnull %3) #8
  br label %lean_dec.exit29

lean_dec.exit29:                                  ; preds = %83, %82, %80, %lean_dec.exit30
  %84 = ptrtoint ptr %2 to i64
  %85 = and i64 %84, 1
  %.not60 = icmp eq i64 %85, 0
  br i1 %.not60, label %86, label %lean_dec.exit28

86:                                               ; preds = %lean_dec.exit29
  %87 = load i32, ptr %2, align 4, !tbaa !8
  %88 = icmp sgt i32 %87, 1
  br i1 %88, label %89, label %91, !prof !11

89:                                               ; preds = %86
  %90 = add nsw i32 %87, -1
  store i32 %90, ptr %2, align 4, !tbaa !8
  br label %lean_dec.exit28

91:                                               ; preds = %86
  %.not.i48 = icmp eq i32 %87, 0
  br i1 %.not.i48, label %lean_dec.exit28, label %92

92:                                               ; preds = %91
  tail call void @lean_dec_ref_cold(ptr noundef nonnull %2) #8
  br label %lean_dec.exit28

lean_dec.exit28:                                  ; preds = %92, %91, %89, %lean_dec.exit29
  %93 = ptrtoint ptr %0 to i64
  %94 = and i64 %93, 1
  %.not61 = icmp eq i64 %94, 0
  br i1 %.not61, label %95, label %lean_dec.exit

95:                                               ; preds = %lean_dec.exit28
  %96 = load i32, ptr %0, align 4, !tbaa !8
  %97 = icmp sgt i32 %96, 1
  br i1 %97, label %98, label %100, !prof !11

98:                                               ; preds = %95
  %99 = add nsw i32 %96, -1
  store i32 %99, ptr %0, align 4, !tbaa !8
  br label %lean_dec.exit

100:                                              ; preds = %95
  %.not.i50 = icmp eq i32 %96, 0
  br i1 %.not.i50, label %lean_dec.exit, label %101

101:                                              ; preds = %100
  tail call void @lean_dec_ref_cold(ptr noundef nonnull %0) #8
  br label %lean_dec.exit

lean_dec.exit:                                    ; preds = %101, %100, %98, %lean_dec.exit28
  ret ptr %47
}